; Function Attrs: nounwind uwtable
define dso_local i32 @prepareReplicasToWrite() local_unnamed_addr #0 {
entry:
  %li = alloca %struct.listIter, align 8
  %0 = load ptr, ptr getelementptr inbounds (%struct.redisServer, ptr @server, i64 0, i32 59), align 8
  call void @listRewind(ptr noundef %0, ptr noundef nonnull %li) #21
  br label %while.cond.outer

while.cond.outer:                                 ; preds = %if.end, %entry
  %prepared.0.ph = phi i32 [ %spec.select, %if.end ], [ 0, %entry ]
  br label %while.cond

while.cond:                                       ; preds = %while.cond.outer, %canFeedReplicaReplBuffer.exit
  %call = call ptr @listNext(ptr noundef nonnull %li) #21
  %tobool.not = icmp eq ptr %call, null
  br i1 %tobool.not, label %while.end, label %while.body

while.body:                                       ; preds = %while.cond
  %value = getelementptr inbounds i8, ptr %call, i64 16
  %1 = load ptr, ptr %value, align 8
  %flags.i = getelementptr inbounds i8, ptr %1, i64 8
  %2 = load i64, ptr %flags.i, align 8
  %and.i = and i64 %2, 4398046511104
  %tobool.not.i = icmp eq i64 %and.i, 0
  br i1 %tobool.not.i, label %if.end.i, label %canFeedReplicaReplBuffer.exit

if.end.i:                                         ; preds = %while.body
  %replstate.i = getelementptr inbounds i8, ptr %1, i64 260
  %3 = load i32, ptr %replstate.i, align 4
  %cmp.i = icmp ne i32 %3, 6
  %..i = zext i1 %cmp.i to i32
  br label %canFeedReplicaReplBuffer.exit

canFeedReplicaReplBuffer.exit:                    ; preds = %while.body, %if.end.i
  %retval.0.i = phi i32 [ 0, %while.body ], [ %..i, %if.end.i ]
  %tobool2.not = icmp eq i32 %retval.0.i, 0
  br i1 %tobool2.not, label %while.cond, label %if.end, !llvm.loop !8

if.end:                                           ; preds = %canFeedReplicaReplBuffer.exit
  %call3 = call i32 @prepareClientToWrite(ptr noundef nonnull %1) #21
  %cmp = icmp ne i32 %call3, -1
  %inc = zext i1 %cmp to i32
  %spec.select = add nuw nsw i32 %prepared.0.ph, %inc
  br label %while.cond.outer, !llvm.loop !8

while.end:                                        ; preds = %while.cond
  ret i32 %prepared.0.ph
}